target datalayout = "e-m:e-p270:32:32-p271:32:32-p272:64:64-i64:64-i128:128-f80:128-n8:16:32:64-S128"
target triple = "x86_64-pc-linux-gnu"

; Function Attrs: nounwind uwtable
define internal ptr @big5_left_adjust_char_head(ptr noundef %0, ptr noundef %1) #0 {
  %3 = alloca ptr, align 8
  %4 = alloca ptr, align 8
  %5 = alloca ptr, align 8
  %6 = alloca ptr, align 8
  %7 = alloca i32, align 4
  %8 = alloca i32, align 4
  store ptr %0, ptr %4, align 8, !tbaa !4
  store ptr %1, ptr %5, align 8, !tbaa !4
  call void @llvm.lifetime.start.p0(i64 8, ptr %6) #3
  call void @llvm.lifetime.start.p0(i64 4, ptr %7) #3
  %9 = load ptr, ptr %5, align 8, !tbaa !4
  %10 = load ptr, ptr %4, align 8, !tbaa !4
  %11 = icmp ule ptr %9, %10
  br i1 %11, label %12, label %14

12:                                               ; preds = %2
  %13 = load ptr, ptr %5, align 8, !tbaa !4
  store ptr %13, ptr %3, align 8
  store i32 1, ptr %8, align 4
  br label %65

14:                                               ; preds = %2
  %15 = load ptr, ptr %5, align 8, !tbaa !4
  store ptr %15, ptr %6, align 8, !tbaa !4
  %16 = load ptr, ptr %6, align 8, !tbaa !4
  %17 = load i8, ptr %16, align 1, !tbaa !9
  %18 = zext i8 %17 to i64
  %19 = getelementptr inbounds nuw [256 x i8], ptr @BIG5_CAN_BE_TRAIL_TABLE, i64 0, i64 %18
  %20 = load i8, ptr %19, align 1, !tbaa !9
  %21 = icmp ne i8 %20, 0
  br i1 %21, label %22, label %40

22:                                               ; preds = %14
  br label %23

23:                                               ; preds = %38, %22
  %24 = load ptr, ptr %6, align 8, !tbaa !4
  %25 = load ptr, ptr %4, align 8, !tbaa !4
  %26 = icmp ugt ptr %24, %25
  br i1 %26, label %27, label %39

27:                                               ; preds = %23
  %28 = load ptr, ptr %6, align 8, !tbaa !4
  %29 = getelementptr inbounds i8, ptr %28, i32 -1
  store ptr %29, ptr %6, align 8, !tbaa !4
  %30 = load i8, ptr %29, align 1, !tbaa !9
  %31 = zext i8 %30 to i64
  %32 = getelementptr inbounds nuw [256 x i32], ptr @EncLen_BIG5, i64 0, i64 %31
  %33 = load i32, ptr %32, align 4, !tbaa !10
  %34 = icmp sgt i32 %33, 1
  br i1 %34, label %38, label %35

35:                                               ; preds = %27
  %36 = load ptr, ptr %6, align 8, !tbaa !4
  %37 = getelementptr inbounds nuw i8, ptr %36, i32 1
  store ptr %37, ptr %6, align 8, !tbaa !4
  br label %39

38:                                               ; preds = %27
  br label %23, !llvm.loop !14

39:                                               ; preds = %35, %23
  br label %40

40:                                               ; preds = %39, %14
  %41 = load ptr, ptr @OnigEncodingBIG5, align 8, !tbaa !16
  %42 = load ptr, ptr %6, align 8, !tbaa !4
  %43 = call i32 %41(ptr noundef %42)
  store i32 %43, ptr %7, align 4, !tbaa !10
  %44 = load ptr, ptr %6, align 8, !tbaa !4
  %45 = load i32, ptr %7, align 4, !tbaa !10
  %46 = sext i32 %45 to i64
  %47 = getelementptr inbounds i8, ptr %44, i64 %46
  %48 = load ptr, ptr %5, align 8, !tbaa !4
  %49 = icmp ugt ptr %47, %48
  br i1 %49, label %50, label %52

50:                                               ; preds = %40
  %51 = load ptr, ptr %6, align 8, !tbaa !4
  store ptr %51, ptr %3, align 8
  store i32 1, ptr %8, align 4
  br label %65

52:                                               ; preds = %40
  %53 = load i32, ptr %7, align 4, !tbaa !10
  %54 = load ptr, ptr %6, align 8, !tbaa !4
  %55 = sext i32 %53 to i64
  %56 = getelementptr inbounds i8, ptr %54, i64 %55
  store ptr %56, ptr %6, align 8, !tbaa !4
  %57 = load ptr, ptr %6, align 8, !tbaa !4
  %58 = load ptr, ptr %5, align 8, !tbaa !4
  %59 = load ptr, ptr %6, align 8, !tbaa !4
  %60 = ptrtoint ptr %58 to i64
  %61 = ptrtoint ptr %59 to i64
  %62 = sub i64 %60, %61
  %63 = and i64 %62, -2
  %64 = getelementptr inbounds i8, ptr %57, i64 %63
  store ptr %64, ptr %3, align 8
  store i32 1, ptr %8, align 4
  br label %65

65:                                               ; preds = %52, %50, %12
  call void @llvm.lifetime.end.p0(i64 4, ptr %7) #3
  call void @llvm.lifetime.end.p0(i64 8, ptr %6) #3
  %66 = load ptr, ptr %3, align 8
  ret ptr %66
}