; Function Attrs: nounwind uwtable
define internal ptr @big5_left_adjust_char_head(ptr noundef readnone captures(address) %0, ptr noundef %1) #2 {
  %.not = icmp ugt ptr %1, %0
  br i1 %.not, label %3, label %25

3:                                                ; preds = %2
  %4 = load i8, ptr %1, align 1, !tbaa !4
  %5 = zext i8 %4 to i64
  %6 = getelementptr inbounds nuw [256 x i8], ptr @BIG5_CAN_BE_TRAIL_TABLE, i64 0, i64 %5
  %7 = load i8, ptr %6, align 1, !tbaa !4
  %.not24 = icmp eq i8 %7, 0
  br i1 %.not24, label %.loopexit, label %.preheader

.preheader:                                       ; preds = %3, %9
  %.1 = phi ptr [ %10, %9 ], [ %1, %3 ]
  %8 = icmp ugt ptr %.1, %0
  br i1 %8, label %9, label %.loopexit

9:                                                ; preds = %.preheader
  %10 = getelementptr inbounds i8, ptr %.1, i64 -1
  %11 = load i8, ptr %10, align 1, !tbaa !4
  %12 = add i8 %11, 95
  %13 = icmp ult i8 %12, 94
  br i1 %13, label %.preheader, label %.loopexit, !llvm.loop !9

.loopexit:                                        ; preds = %9, %.preheader, %3
  %.019 = phi ptr [ %1, %3 ], [ %.1, %.preheader ], [ %.1, %9 ]
  %14 = load ptr, ptr @OnigEncodingBIG5, align 8, !tbaa !11
  %15 = tail call i32 %14(ptr noundef nonnull %.019) #5
  %16 = sext i32 %15 to i64
  %17 = getelementptr inbounds i8, ptr %.019, i64 %16
  %18 = icmp ugt ptr %17, %1
  br i1 %18, label %25, label %19

19:                                               ; preds = %.loopexit
  %20 = ptrtoint ptr %1 to i64
  %21 = ptrtoint ptr %17 to i64
  %22 = sub i64 %20, %21
  %23 = and i64 %22, -2
  %24 = getelementptr inbounds i8, ptr %17, i64 %23
  br label %25

25:                                               ; preds = %.loopexit, %2, %19
  %.0 = phi ptr [ %24, %19 ], [ %1, %2 ], [ %.019, %.loopexit ]
  ret ptr %.0
}